target datalayout = "e-m:e-p270:32:32-p271:32:32-p272:64:64-i64:64-i128:128-f80:128-n8:16:32:64-S128"
target triple = "x86_64-pc-linux-gnu"

%struct.ident_t = type { i32, i32, i32, i32, ptr }
%class.QuantNet = type { %"class.ncnn::Net", ptr, ptr, %"class.std::vector", %"class.std::vector.0", %"class.std::vector.0", %"class.std::vector.5", %"class.std::vector.10", i32, %"class.std::vector.10", %"class.std::vector.10", %"class.std::vector.10", %"class.std::vector.10", %"class.std::vector.15", %"class.std::vector.20", %"class.std::vector.20" }
%"class.ncnn::Net" = type { ptr, %"class.ncnn::Option", ptr }
%"class.ncnn::Option" = type { i8, i32, ptr, ptr, i32, i8, i8, i8, i8, i8, i8, i8, i8, i8, i8, i8, i8, i8, i8, i8, i8, i8, i8, i8, i8, i32, i8, i8, i8, i8, i8, i8, i8, i8, i8, i8, i8, i8 }
%"class.std::vector" = type { %"struct.std::_Vector_base" }
%"struct.std::_Vector_base" = type { %"struct.std::_Vector_base<std::vector<std::__cxx11::basic_string<char>>, std::allocator<std::vector<std::__cxx11::basic_string<char>>>>::_Vector_impl" }
%"struct.std::_Vector_base<std::vector<std::__cxx11::basic_string<char>>, std::allocator<std::vector<std::__cxx11::basic_string<char>>>>::_Vector_impl" = type { %"struct.std::_Vector_base<std::vector<std::__cxx11::basic_string<char>>, std::allocator<std::vector<std::__cxx11::basic_string<char>>>>::_Vector_impl_data" }
%"struct.std::_Vector_base<std::vector<std::__cxx11::basic_string<char>>, std::allocator<std::vector<std::__cxx11::basic_string<char>>>>::_Vector_impl_data" = type { ptr, ptr, ptr }
%"class.std::vector.0" = type { %"struct.std::_Vector_base.1" }
%"struct.std::_Vector_base.1" = type { %"struct.std::_Vector_base<std::vector<float>, std::allocator<std::vector<float>>>::_Vector_impl" }
%"struct.std::_Vector_base<std::vector<float>, std::allocator<std::vector<float>>>::_Vector_impl" = type { %"struct.std::_Vector_base<std::vector<float>, std::allocator<std::vector<float>>>::_Vector_impl_data" }
%"struct.std::_Vector_base<std::vector<float>, std::allocator<std::vector<float>>>::_Vector_impl_data" = type { ptr, ptr, ptr }
%"class.std::vector.5" = type { %"struct.std::_Vector_base.6" }
%"struct.std::_Vector_base.6" = type { %"struct.std::_Vector_base<std::vector<int>, std::allocator<std::vector<int>>>::_Vector_impl" }
%"struct.std::_Vector_base<std::vector<int>, std::allocator<std::vector<int>>>::_Vector_impl" = type { %"struct.std::_Vector_base<std::vector<int>, std::allocator<std::vector<int>>>::_Vector_impl_data" }
%"struct.std::_Vector_base<std::vector<int>, std::allocator<std::vector<int>>>::_Vector_impl_data" = type { ptr, ptr, ptr }
%"class.std::vector.10" = type { %"struct.std::_Vector_base.11" }
%"struct.std::_Vector_base.11" = type { %"struct.std::_Vector_base<int, std::allocator<int>>::_Vector_impl" }
%"struct.std::_Vector_base<int, std::allocator<int>>::_Vector_impl" = type { %"struct.std::_Vector_base<int, std::allocator<int>>::_Vector_impl_data" }
%"struct.std::_Vector_base<int, std::allocator<int>>::_Vector_impl_data" = type { ptr, ptr, ptr }
%"class.std::vector.15" = type { %"struct.std::_Vector_base.16" }
%"struct.std::_Vector_base.16" = type { %"struct.std::_Vector_base<QuantBlobStat, std::allocator<QuantBlobStat>>::_Vector_impl" }
%"struct.std::_Vector_base<QuantBlobStat, std::allocator<QuantBlobStat>>::_Vector_impl" = type { %"struct.std::_Vector_base<QuantBlobStat, std::allocator<QuantBlobStat>>::_Vector_impl_data" }
%"struct.std::_Vector_base<QuantBlobStat, std::allocator<QuantBlobStat>>::_Vector_impl_data" = type { ptr, ptr, ptr }
%"class.std::vector.20" = type { %"struct.std::_Vector_base.21" }
%"struct.std::_Vector_base.21" = type { %"struct.std::_Vector_base<ncnn::Mat, std::allocator<ncnn::Mat>>::_Vector_impl" }
%"struct.std::_Vector_base<ncnn::Mat, std::allocator<ncnn::Mat>>::_Vector_impl" = type { %"struct.std::_Vector_base<ncnn::Mat, std::allocator<ncnn::Mat>>::_Vector_impl_data" }
%"struct.std::_Vector_base<ncnn::Mat, std::allocator<ncnn::Mat>>::_Vector_impl_data" = type { ptr, ptr, ptr }
%"class.std::vector.41" = type { %"struct.std::_Vector_base.42" }
%"struct.std::_Vector_base.42" = type { %"struct.std::_Vector_base<std::__cxx11::basic_string<char>, std::allocator<std::__cxx11::basic_string<char>>>::_Vector_impl" }
%"struct.std::_Vector_base<std::__cxx11::basic_string<char>, std::allocator<std::__cxx11::basic_string<char>>>::_Vector_impl" = type { %"struct.std::_Vector_base<std::__cxx11::basic_string<char>, std::allocator<std::__cxx11::basic_string<char>>>::_Vector_impl_data" }
%"struct.std::_Vector_base<std::__cxx11::basic_string<char>, std::allocator<std::__cxx11::basic_string<char>>>::_Vector_impl_data" = type { ptr, ptr, ptr }
%"class.std::vector.49" = type { %"struct.std::_Vector_base.50" }
%"struct.std::_Vector_base.50" = type { %"struct.std::_Vector_base<ncnn::UnlockedPoolAllocator, std::allocator<ncnn::UnlockedPoolAllocator>>::_Vector_impl" }
%"struct.std::_Vector_base<ncnn::UnlockedPoolAllocator, std::allocator<ncnn::UnlockedPoolAllocator>>::_Vector_impl" = type { %"struct.std::_Vector_base<ncnn::UnlockedPoolAllocator, std::allocator<ncnn::UnlockedPoolAllocator>>::_Vector_impl_data" }
%"struct.std::_Vector_base<ncnn::UnlockedPoolAllocator, std::allocator<ncnn::UnlockedPoolAllocator>>::_Vector_impl_data" = type { ptr, ptr, ptr }
%"class.std::allocator.51" = type { i8 }

@2 = private unnamed_addr constant %struct.ident_t { i32 0, i32 2, i32 0, i32 22, ptr @0 }, align 8

; Function Attrs: mustprogress nounwind uwtable
define linkonce_odr dso_local void @_ZNSt15__new_allocatorIN4ncnn21UnlockedPoolAllocatorEEC2Ev(ptr noundef nonnull align 1 dereferenceable(1) %0) unnamed_addr #2 comdat align 2 {
  %2 = alloca ptr, align 8
  store ptr %0, ptr %2, align 8, !tbaa !264
  ret void
}

; Function Attrs: mustprogress nounwind uwtable
define linkonce_odr dso_local void @_ZNSt15__new_allocatorIN4ncnn21UnlockedPoolAllocatorEED2Ev(ptr noundef nonnull align 1 dereferenceable(1) %0) unnamed_addr #2 comdat align 2 {
  %2 = alloca ptr, align 8
  store ptr %0, ptr %2, align 8, !tbaa !264
  ret void
}

; Function Attrs: mustprogress nounwind uwtable
define linkonce_odr dso_local void @_ZNSaIN4ncnn21UnlockedPoolAllocatorEEC2Ev(ptr noundef nonnull align 1 dereferenceable(1) %0) unnamed_addr #2 comdat align 2 {
  %2 = alloca ptr, align 8
  store ptr %0, ptr %2, align 8, !tbaa !260
  %3 = load ptr, ptr %2, align 8
  call void @_ZNSt15__new_allocatorIN4ncnn21UnlockedPoolAllocatorEEC2Ev(ptr noundef nonnull align 1 dereferenceable(1) %3) #16
  ret void
}

; Function Attrs: mustprogress nounwind uwtable
define linkonce_odr dso_local noundef i64 @_ZNKSt6vectorINSt7__cxx1112basic_stringIcSt11char_traitsIcESaIcEEESaIS5_EE4sizeEv(ptr noundef nonnull align 8 dereferenceable(24) %0) #2 comdat align 2 {
  %2 = alloca ptr, align 8
  store ptr %0, ptr %2, align 8, !tbaa !185
  %3 = load ptr, ptr %2, align 8
  %4 = getelementptr inbounds nuw %"struct.std::_Vector_base.42", ptr %3, i32 0, i32 0
  %5 = getelementptr inbounds nuw %"struct.std::_Vector_base<std::__cxx11::basic_string<char>, std::allocator<std::__cxx11::basic_string<char>>>::_Vector_impl_data", ptr %4, i32 0, i32 1
  %6 = load ptr, ptr %5, align 8, !tbaa !191
  %7 = getelementptr inbounds nuw %"struct.std::_Vector_base.42", ptr %3, i32 0, i32 0
  %8 = getelementptr inbounds nuw %"struct.std::_Vector_base<std::__cxx11::basic_string<char>, std::allocator<std::__cxx11::basic_string<char>>>::_Vector_impl_data", ptr %7, i32 0, i32 0
  %9 = load ptr, ptr %8, align 8, !tbaa !188
  %10 = ptrtoint ptr %6 to i64
  %11 = ptrtoint ptr %9 to i64
  %12 = sub i64 %10, %11
  %13 = sdiv exact i64 %12, 32
  ret i64 %13
}

; Function Attrs: mustprogress nounwind uwtable
define linkonce_odr dso_local noundef nonnull align 8 dereferenceable(24) ptr @_ZNSt6vectorIS_INSt7__cxx1112basic_stringIcSt11char_traitsIcESaIcEEESaIS5_EESaIS7_EEixEm(ptr noundef nonnull align 8 dereferenceable(24) %0, i64 noundef %1) #2 comdat align 2 {
  %3 = alloca ptr, align 8
  %4 = alloca i64, align 8
  store ptr %0, ptr %3, align 8, !tbaa !54
  store i64 %1, ptr %4, align 8, !tbaa !149
  %5 = load ptr, ptr %3, align 8
  %6 = getelementptr inbounds nuw %"struct.std::_Vector_base", ptr %5, i32 0, i32 0
  %7 = getelementptr inbounds nuw %"struct.std::_Vector_base<std::vector<std::__cxx11::basic_string<char>>, std::allocator<std::vector<std::__cxx11::basic_string<char>>>>::_Vector_impl_data", ptr %6, i32 0, i32 0
  %8 = load ptr, ptr %7, align 8, !tbaa !75
  %9 = load i64, ptr %4, align 8, !tbaa !149
  %10 = getelementptr inbounds nuw %"class.std::vector.41", ptr %8, i64 %9
  ret ptr %10
}

; Function Attrs: mustprogress nounwind uwtable
define linkonce_odr dso_local noundef i64 @_ZNKSt6vectorIiSaIiEE4sizeEv(ptr noundef nonnull align 8 dereferenceable(24) %0) #2 comdat align 2 {
  %2 = alloca ptr, align 8
  store ptr %0, ptr %2, align 8, !tbaa !60
  %3 = load ptr, ptr %2, align 8
  %4 = getelementptr inbounds nuw %"struct.std::_Vector_base.11", ptr %3, i32 0, i32 0
  %5 = getelementptr inbounds nuw %"struct.std::_Vector_base<int, std::allocator<int>>::_Vector_impl_data", ptr %4, i32 0, i32 1
  %6 = load ptr, ptr %5, align 8, !tbaa !70
  %7 = getelementptr inbounds nuw %"struct.std::_Vector_base.11", ptr %3, i32 0, i32 0
  %8 = getelementptr inbounds nuw %"struct.std::_Vector_base<int, std::allocator<int>>::_Vector_impl_data", ptr %7, i32 0, i32 0
  %9 = load ptr, ptr %8, align 8, !tbaa !69
  %10 = ptrtoint ptr %6 to i64
  %11 = ptrtoint ptr %9 to i64
  %12 = sub i64 %10, %11
  %13 = sdiv exact i64 %12, 4
  ret i64 %13
}

; Function Attrs: mustprogress uwtable
define dso_local noundef i32 @_ZN8QuantNet13quantize_ACIQEv(ptr noundef nonnull align 8 dereferenceable(392) %0) #0 align 2 personality ptr @__gxx_personality_v0 {
  %2 = alloca ptr, align 8
  %3 = alloca i32, align 4
  %4 = alloca i32, align 4
  %5 = alloca i32, align 4
  %6 = alloca i32, align 4
  %7 = alloca %"class.std::vector.49", align 8
  %8 = alloca %"class.std::allocator.51", align 1
  %9 = alloca ptr, align 8
  %10 = alloca i32, align 4
  %11 = alloca %"class.std::vector.49", align 8
  %12 = alloca %"class.std::allocator.51", align 1
  %13 = call i32 @__kmpc_global_thread_num(ptr @2)
  store ptr %0, ptr %2, align 8, !tbaa !5
  %14 = load ptr, ptr %2, align 8
  call void @llvm.lifetime.start.p0(i64 4, ptr %3) #16
  %15 = getelementptr inbounds nuw %class.QuantNet, ptr %14, i32 0, i32 9
  %16 = call noundef i64 @_ZNKSt6vectorIiSaIiEE4sizeEv(ptr noundef nonnull align 8 dereferenceable(24) %15) #16
  %17 = trunc i64 %16 to i32
  store i32 %17, ptr %3, align 4, !tbaa !137
  call void @llvm.lifetime.start.p0(i64 4, ptr %4) #16
  %18 = getelementptr inbounds nuw %class.QuantNet, ptr %14, i32 0, i32 10
  %19 = call noundef i64 @_ZNKSt6vectorIiSaIiEE4sizeEv(ptr noundef nonnull align 8 dereferenceable(24) %18) #16
  %20 = trunc i64 %19 to i32
  store i32 %20, ptr %4, align 4, !tbaa !137
  call void @llvm.lifetime.start.p0(i64 4, ptr %5) #16
  %21 = getelementptr inbounds nuw %class.QuantNet, ptr %14, i32 0, i32 11
  %22 = call noundef i64 @_ZNKSt6vectorIiSaIiEE4sizeEv(ptr noundef nonnull align 8 dereferenceable(24) %21) #16
  %23 = trunc i64 %22 to i32
  store i32 %23, ptr %5, align 4, !tbaa !137
  call void @llvm.lifetime.start.p0(i64 4, ptr %6) #16
  %24 = getelementptr inbounds nuw %class.QuantNet, ptr %14, i32 0, i32 3
  %25 = call noundef nonnull align 8 dereferenceable(24) ptr @_ZNSt6vectorIS_INSt7__cxx1112basic_stringIcSt11char_traitsIcESaIcEEESaIS5_EESaIS7_EEixEm(ptr noundef nonnull align 8 dereferenceable(24) %24, i64 noundef 0) #16
  %26 = call noundef i64 @_ZNKSt6vectorINSt7__cxx1112basic_stringIcSt11char_traitsIcESaIcEEESaIS5_EE4sizeEv(ptr noundef nonnull align 8 dereferenceable(24) %25) #16
  %27 = trunc i64 %26 to i32
  store i32 %27, ptr %6, align 4, !tbaa !137
  call void @llvm.lifetime.start.p0(i64 24, ptr %7) #16
  %28 = getelementptr inbounds nuw %class.QuantNet, ptr %14, i32 0, i32 8
  %29 = load i32, ptr %28, align 8, !tbaa !16
  %30 = sext i32 %29 to i64
  call void @llvm.lifetime.start.p0(i64 1, ptr %8) #16
  call void @_ZNSaIN4ncnn21UnlockedPoolAllocatorEEC2Ev(ptr noundef nonnull align 1 dereferenceable(1) %8) #16
  invoke void @_ZNSt6vectorIN4ncnn21UnlockedPoolAllocatorESaIS1_EEC2EmRKS2_(ptr noundef nonnull align 8 dereferenceable(24) %7, i64 noundef %30, ptr noundef nonnull align 1 dereferenceable(1) %8)
          to label %31 unwind label %42

31:                                               ; preds = %1
  call void @_ZNSt15__new_allocatorIN4ncnn21UnlockedPoolAllocatorEED2Ev(ptr noundef nonnull align 1 dereferenceable(1) %8) #16
  call void @llvm.lifetime.end.p0(i64 1, ptr %8) #16
  call void @llvm.lifetime.start.p0(i64 24, ptr %11) #16
  %32 = getelementptr inbounds nuw %class.QuantNet, ptr %14, i32 0, i32 8
  %33 = load i32, ptr %32, align 8, !tbaa !16
  %34 = sext i32 %33 to i64
  call void @llvm.lifetime.start.p0(i64 1, ptr %12) #16
  call void @_ZNSaIN4ncnn21UnlockedPoolAllocatorEEC2Ev(ptr noundef nonnull align 1 dereferenceable(1) %12) #16
  invoke void @_ZNSt6vectorIN4ncnn21UnlockedPoolAllocatorESaIS1_EEC2EmRKS2_(ptr noundef nonnull align 8 dereferenceable(24) %11, i64 noundef %34, ptr noundef nonnull align 1 dereferenceable(1) %12)
          to label %35 unwind label %46

35:                                               ; preds = %31
  call void @_ZNSt15__new_allocatorIN4ncnn21UnlockedPoolAllocatorEED2Ev(ptr noundef nonnull align 1 dereferenceable(1) %12) #16
  call void @llvm.lifetime.end.p0(i64 1, ptr %12) #16
  %36 = getelementptr inbounds nuw %class.QuantNet, ptr %14, i32 0, i32 8
  %37 = load i32, ptr %36, align 8, !tbaa !16
  call void @__kmpc_push_num_threads(ptr @2, i32 %13, i32 %37)
  call void (ptr, i32, ptr, ...) @__kmpc_fork_call(ptr @2, i32 2, ptr @_ZN8QuantNet13quantize_ACIQEv.omp_outlined, ptr %4, ptr %14)
  %38 = getelementptr inbounds nuw %class.QuantNet, ptr %14, i32 0, i32 8
  %39 = load i32, ptr %38, align 8, !tbaa !16
  call void @__kmpc_push_num_threads(ptr @2, i32 %13, i32 %39)
  call void (ptr, i32, ptr, ...) @__kmpc_fork_call(ptr @2, i32 6, ptr @_ZN8QuantNet13quantize_ACIQEv.omp_outlined.22, ptr %6, ptr %14, ptr %7, ptr %11, ptr %3, ptr %5)
  %40 = getelementptr inbounds nuw %class.QuantNet, ptr %14, i32 0, i32 8
  %41 = load i32, ptr %40, align 8, !tbaa !16
  call void @__kmpc_push_num_threads(ptr @2, i32 %13, i32 %41)
  call void (ptr, i32, ptr, ...) @__kmpc_fork_call(ptr @2, i32 2, ptr @_ZN8QuantNet13quantize_ACIQEv.omp_outlined.23, ptr %5, ptr %14)
  call void @_ZNSt6vectorIN4ncnn21UnlockedPoolAllocatorESaIS1_EED2Ev(ptr noundef nonnull align 8 dereferenceable(24) %11) #16
  call void @llvm.lifetime.end.p0(i64 24, ptr %11) #16
  call void @_ZNSt6vectorIN4ncnn21UnlockedPoolAllocatorESaIS1_EED2Ev(ptr noundef nonnull align 8 dereferenceable(24) %7) #16
  call void @llvm.lifetime.end.p0(i64 24, ptr %7) #16
  call void @llvm.lifetime.end.p0(i64 4, ptr %6) #16
  call void @llvm.lifetime.end.p0(i64 4, ptr %5) #16
  call void @llvm.lifetime.end.p0(i64 4, ptr %4) #16
  call void @llvm.lifetime.end.p0(i64 4, ptr %3) #16
  ret i32 0

42:                                               ; preds = %1
  %43 = landingpad { ptr, i32 }
          cleanup
  %44 = extractvalue { ptr, i32 } %43, 0
  store ptr %44, ptr %9, align 8
  %45 = extractvalue { ptr, i32 } %43, 1
  store i32 %45, ptr %10, align 4
  call void @_ZNSt15__new_allocatorIN4ncnn21UnlockedPoolAllocatorEED2Ev(ptr noundef nonnull align 1 dereferenceable(1) %8) #16
  call void @llvm.lifetime.end.p0(i64 1, ptr %8) #16
  br label %50

46:                                               ; preds = %31
  %47 = landingpad { ptr, i32 }
          cleanup
  %48 = extractvalue { ptr, i32 } %47, 0
  store ptr %48, ptr %9, align 8
  %49 = extractvalue { ptr, i32 } %47, 1
  store i32 %49, ptr %10, align 4
  call void @_ZNSt15__new_allocatorIN4ncnn21UnlockedPoolAllocatorEED2Ev(ptr noundef nonnull align 1 dereferenceable(1) %12) #16
  call void @llvm.lifetime.end.p0(i64 1, ptr %12) #16
  call void @llvm.lifetime.end.p0(i64 24, ptr %11) #16
  call void @_ZNSt6vectorIN4ncnn21UnlockedPoolAllocatorESaIS1_EED2Ev(ptr noundef nonnull align 8 dereferenceable(24) %7) #16
  br label %50

50:                                               ; preds = %46, %42
  call void @llvm.lifetime.end.p0(i64 24, ptr %7) #16
  call void @llvm.lifetime.end.p0(i64 4, ptr %6) #16
  call void @llvm.lifetime.end.p0(i64 4, ptr %5) #16
  call void @llvm.lifetime.end.p0(i64 4, ptr %4) #16
  call void @llvm.lifetime.end.p0(i64 4, ptr %3) #16
  br label %51

51:                                               ; preds = %50
  %52 = load ptr, ptr %9, align 8
  %53 = load i32, ptr %10, align 4
  %54 = insertvalue { ptr, i32 } poison, ptr %52, 0
  %55 = insertvalue { ptr, i32 } %54, i32 %53, 1
  resume { ptr, i32 } %55
}