; Function Attrs: mustprogress uwtable
define dso_local noundef i32 @_ZN8QuantNet13quantize_ACIQEv(ptr noundef nonnull align 8 dereferenceable(392) %0) local_unnamed_addr #0 align 2 personality ptr @__gxx_personality_v0 {
  %2 = alloca i32, align 4
  %3 = alloca i32, align 4
  %4 = alloca i32, align 4
  %5 = alloca i32, align 4
  %6 = alloca %"class.std::vector.49", align 8
  %7 = alloca %"class.std::allocator.51", align 1
  %8 = alloca %"class.std::vector.49", align 8
  %9 = alloca %"class.std::allocator.51", align 1
  %10 = tail call i32 @__kmpc_global_thread_num(ptr nonnull @2)
  call void @llvm.lifetime.start.p0(i64 4, ptr nonnull %2) #16
  %11 = getelementptr inbounds nuw i8, ptr %0, i64 224
  %12 = getelementptr inbounds nuw i8, ptr %0, i64 232
  %13 = load ptr, ptr %12, align 8, !tbaa !99
  %14 = load ptr, ptr %11, align 8, !tbaa !52
  %15 = ptrtoint ptr %13 to i64
  %16 = ptrtoint ptr %14 to i64
  %17 = sub i64 %15, %16
  %18 = lshr exact i64 %17, 2
  %19 = trunc i64 %18 to i32
  store i32 %19, ptr %2, align 4, !tbaa !101
  call void @llvm.lifetime.start.p0(i64 4, ptr nonnull %3) #16
  %20 = getelementptr inbounds nuw i8, ptr %0, i64 248
  %21 = getelementptr inbounds nuw i8, ptr %0, i64 256
  %22 = load ptr, ptr %21, align 8, !tbaa !99
  %23 = load ptr, ptr %20, align 8, !tbaa !52
  %24 = ptrtoint ptr %22 to i64
  %25 = ptrtoint ptr %23 to i64
  %26 = sub i64 %24, %25
  %27 = lshr exact i64 %26, 2
  %28 = trunc i64 %27 to i32
  store i32 %28, ptr %3, align 4, !tbaa !101
  call void @llvm.lifetime.start.p0(i64 4, ptr nonnull %4) #16
  %29 = getelementptr inbounds nuw i8, ptr %0, i64 272
  %30 = getelementptr inbounds nuw i8, ptr %0, i64 280
  %31 = load ptr, ptr %30, align 8, !tbaa !99
  %32 = load ptr, ptr %29, align 8, !tbaa !52
  %33 = ptrtoint ptr %31 to i64
  %34 = ptrtoint ptr %32 to i64
  %35 = sub i64 %33, %34
  %36 = lshr exact i64 %35, 2
  %37 = trunc i64 %36 to i32
  store i32 %37, ptr %4, align 4, !tbaa !101
  call void @llvm.lifetime.start.p0(i64 4, ptr nonnull %5) #16
  %38 = getelementptr inbounds nuw i8, ptr %0, i64 96
  %39 = load ptr, ptr %38, align 8, !tbaa !78
  %40 = getelementptr inbounds nuw i8, ptr %39, i64 8
  %41 = load ptr, ptr %40, align 8, !tbaa !83
  %42 = load ptr, ptr %39, align 8, !tbaa !80
  %43 = ptrtoint ptr %41 to i64
  %44 = ptrtoint ptr %42 to i64
  %45 = sub i64 %43, %44
  %46 = lshr exact i64 %45, 5
  %47 = trunc i64 %46 to i32
  store i32 %47, ptr %5, align 4, !tbaa !101
  call void @llvm.lifetime.start.p0(i64 24, ptr nonnull %6) #16
  %48 = getelementptr inbounds nuw i8, ptr %0, i64 216
  %49 = load i32, ptr %48, align 8, !tbaa !14
  %50 = sext i32 %49 to i64
  call void @llvm.lifetime.start.p0(i64 1, ptr nonnull %7) #16
  call void @_ZNSt6vectorIN4ncnn21UnlockedPoolAllocatorESaIS1_EEC2EmRKS2_(ptr noundef nonnull align 8 dereferenceable(24) %6, i64 noundef %50, ptr noundef nonnull align 1 dereferenceable(1) %7)
  call void @llvm.lifetime.end.p0(i64 1, ptr nonnull %7) #16
  call void @llvm.lifetime.start.p0(i64 24, ptr nonnull %8) #16
  %51 = load i32, ptr %48, align 8, !tbaa !14
  %52 = sext i32 %51 to i64
  call void @llvm.lifetime.start.p0(i64 1, ptr nonnull %9) #16
  invoke void @_ZNSt6vectorIN4ncnn21UnlockedPoolAllocatorESaIS1_EEC2EmRKS2_(ptr noundef nonnull align 8 dereferenceable(24) %8, i64 noundef %52, ptr noundef nonnull align 1 dereferenceable(1) %9)
          to label %53 unwind label %73

53:                                               ; preds = %1
  call void @llvm.lifetime.end.p0(i64 1, ptr nonnull %9) #16
  %54 = load i32, ptr %48, align 8, !tbaa !14
  call void @__kmpc_push_num_threads(ptr nonnull @2, i32 %10, i32 %54)
  call void (ptr, i32, ptr, ...) @__kmpc_fork_call(ptr nonnull @2, i32 2, ptr nonnull @_ZN8QuantNet13quantize_ACIQEv.omp_outlined, ptr nonnull %3, ptr nonnull %0)
  %55 = load i32, ptr %48, align 8, !tbaa !14
  call void @__kmpc_push_num_threads(ptr nonnull @2, i32 %10, i32 %55)
  call void (ptr, i32, ptr, ...) @__kmpc_fork_call(ptr nonnull @2, i32 6, ptr nonnull @_ZN8QuantNet13quantize_ACIQEv.omp_outlined.22, ptr nonnull %5, ptr nonnull %0, ptr nonnull %6, ptr nonnull %8, ptr nonnull %2, ptr nonnull %4)
  %56 = load i32, ptr %48, align 8, !tbaa !14
  call void @__kmpc_push_num_threads(ptr nonnull @2, i32 %10, i32 %56)
  call void (ptr, i32, ptr, ...) @__kmpc_fork_call(ptr nonnull @2, i32 2, ptr nonnull @_ZN8QuantNet13quantize_ACIQEv.omp_outlined.23, ptr nonnull %4, ptr nonnull %0)
  %57 = load ptr, ptr %8, align 8, !tbaa !146
  %58 = getelementptr inbounds nuw i8, ptr %8, i64 8
  %59 = load ptr, ptr %58, align 8, !tbaa !149
  %.not4.i.i.i.i = icmp eq ptr %57, %59
  br i1 %.not4.i.i.i.i, label %_ZSt8_DestroyIPN4ncnn21UnlockedPoolAllocatorES1_EvT_S3_RSaIT0_E.exit.i, label %.lr.ph.i.i.i.i

.lr.ph.i.i.i.i:                                   ; preds = %53, %.lr.ph.i.i.i.i
  %.05.i.i.i.i = phi ptr [ %62, %.lr.ph.i.i.i.i ], [ %57, %53 ]
  %60 = load ptr, ptr %.05.i.i.i.i, align 8, !tbaa !5
  %61 = load ptr, ptr %60, align 8
  call void %61(ptr noundef nonnull align 8 dereferenceable(16) %.05.i.i.i.i) #16
  %62 = getelementptr inbounds nuw i8, ptr %.05.i.i.i.i, i64 16
  %.not.i.i.i.i = icmp eq ptr %62, %59
  br i1 %.not.i.i.i.i, label %_ZSt8_DestroyIPN4ncnn21UnlockedPoolAllocatorES1_EvT_S3_RSaIT0_E.exitthread-pre-split.i, label %.lr.ph.i.i.i.i, !llvm.loop !150

_ZSt8_DestroyIPN4ncnn21UnlockedPoolAllocatorES1_EvT_S3_RSaIT0_E.exitthread-pre-split.i: ; preds = %.lr.ph.i.i.i.i
  %.pr.i = load ptr, ptr %8, align 8, !tbaa !146
  br label %_ZSt8_DestroyIPN4ncnn21UnlockedPoolAllocatorES1_EvT_S3_RSaIT0_E.exit.i

_ZSt8_DestroyIPN4ncnn21UnlockedPoolAllocatorES1_EvT_S3_RSaIT0_E.exit.i: ; preds = %_ZSt8_DestroyIPN4ncnn21UnlockedPoolAllocatorES1_EvT_S3_RSaIT0_E.exitthread-pre-split.i, %53
  %63 = phi ptr [ %.pr.i, %_ZSt8_DestroyIPN4ncnn21UnlockedPoolAllocatorES1_EvT_S3_RSaIT0_E.exitthread-pre-split.i ], [ %57, %53 ]
  %.not.i.i.i = icmp eq ptr %63, null
  br i1 %.not.i.i.i, label %_ZNSt6vectorIN4ncnn21UnlockedPoolAllocatorESaIS1_EED2Ev.exit, label %64

64:                                               ; preds = %_ZSt8_DestroyIPN4ncnn21UnlockedPoolAllocatorES1_EvT_S3_RSaIT0_E.exit.i
  call void @_ZdlPv(ptr noundef nonnull %63) #32
  br label %_ZNSt6vectorIN4ncnn21UnlockedPoolAllocatorESaIS1_EED2Ev.exit

_ZNSt6vectorIN4ncnn21UnlockedPoolAllocatorESaIS1_EED2Ev.exit: ; preds = %_ZSt8_DestroyIPN4ncnn21UnlockedPoolAllocatorES1_EvT_S3_RSaIT0_E.exit.i, %64
  call void @llvm.lifetime.end.p0(i64 24, ptr nonnull %8) #16
  %65 = load ptr, ptr %6, align 8, !tbaa !146
  %66 = getelementptr inbounds nuw i8, ptr %6, i64 8
  %67 = load ptr, ptr %66, align 8, !tbaa !149
  %.not4.i.i.i.i4 = icmp eq ptr %65, %67
  br i1 %.not4.i.i.i.i4, label %_ZSt8_DestroyIPN4ncnn21UnlockedPoolAllocatorES1_EvT_S3_RSaIT0_E.exit.i10, label %.lr.ph.i.i.i.i5

.lr.ph.i.i.i.i5:                                  ; preds = %_ZNSt6vectorIN4ncnn21UnlockedPoolAllocatorESaIS1_EED2Ev.exit, %.lr.ph.i.i.i.i5
  %.05.i.i.i.i6 = phi ptr [ %70, %.lr.ph.i.i.i.i5 ], [ %65, %_ZNSt6vectorIN4ncnn21UnlockedPoolAllocatorESaIS1_EED2Ev.exit ]
  %68 = load ptr, ptr %.05.i.i.i.i6, align 8, !tbaa !5
  %69 = load ptr, ptr %68, align 8
  call void %69(ptr noundef nonnull align 8 dereferenceable(16) %.05.i.i.i.i6) #16
  %70 = getelementptr inbounds nuw i8, ptr %.05.i.i.i.i6, i64 16
  %.not.i.i.i.i7 = icmp eq ptr %70, %67
  br i1 %.not.i.i.i.i7, label %_ZSt8_DestroyIPN4ncnn21UnlockedPoolAllocatorES1_EvT_S3_RSaIT0_E.exitthread-pre-split.i8, label %.lr.ph.i.i.i.i5, !llvm.loop !150

_ZSt8_DestroyIPN4ncnn21UnlockedPoolAllocatorES1_EvT_S3_RSaIT0_E.exitthread-pre-split.i8: ; preds = %.lr.ph.i.i.i.i5
  %.pr.i9 = load ptr, ptr %6, align 8, !tbaa !146
  br label %_ZSt8_DestroyIPN4ncnn21UnlockedPoolAllocatorES1_EvT_S3_RSaIT0_E.exit.i10

_ZSt8_DestroyIPN4ncnn21UnlockedPoolAllocatorES1_EvT_S3_RSaIT0_E.exit.i10: ; preds = %_ZSt8_DestroyIPN4ncnn21UnlockedPoolAllocatorES1_EvT_S3_RSaIT0_E.exitthread-pre-split.i8, %_ZNSt6vectorIN4ncnn21UnlockedPoolAllocatorESaIS1_EED2Ev.exit
  %71 = phi ptr [ %.pr.i9, %_ZSt8_DestroyIPN4ncnn21UnlockedPoolAllocatorES1_EvT_S3_RSaIT0_E.exitthread-pre-split.i8 ], [ %65, %_ZNSt6vectorIN4ncnn21UnlockedPoolAllocatorESaIS1_EED2Ev.exit ]
  %.not.i.i.i11 = icmp eq ptr %71, null
  br i1 %.not.i.i.i11, label %_ZNSt6vectorIN4ncnn21UnlockedPoolAllocatorESaIS1_EED2Ev.exit12, label %72

72:                                               ; preds = %_ZSt8_DestroyIPN4ncnn21UnlockedPoolAllocatorES1_EvT_S3_RSaIT0_E.exit.i10
  call void @_ZdlPv(ptr noundef nonnull %71) #32
  br label %_ZNSt6vectorIN4ncnn21UnlockedPoolAllocatorESaIS1_EED2Ev.exit12

_ZNSt6vectorIN4ncnn21UnlockedPoolAllocatorESaIS1_EED2Ev.exit12: ; preds = %_ZSt8_DestroyIPN4ncnn21UnlockedPoolAllocatorES1_EvT_S3_RSaIT0_E.exit.i10, %72
  call void @llvm.lifetime.end.p0(i64 24, ptr nonnull %6) #16
  call void @llvm.lifetime.end.p0(i64 4, ptr nonnull %5) #16
  call void @llvm.lifetime.end.p0(i64 4, ptr nonnull %4) #16
  call void @llvm.lifetime.end.p0(i64 4, ptr nonnull %3) #16
  call void @llvm.lifetime.end.p0(i64 4, ptr nonnull %2) #16
  ret i32 0

73:                                               ; preds = %1
  %74 = landingpad { ptr, i32 }
          cleanup
  call void @llvm.lifetime.end.p0(i64 1, ptr nonnull %9) #16
  call void @llvm.lifetime.end.p0(i64 24, ptr nonnull %8) #16
  call void @_ZNSt6vectorIN4ncnn21UnlockedPoolAllocatorESaIS1_EED2Ev(ptr noundef nonnull align 8 dereferenceable(24) %6) #16
  call void @llvm.lifetime.end.p0(i64 24, ptr nonnull %6) #16
  call void @llvm.lifetime.end.p0(i64 4, ptr nonnull %5) #16
  call void @llvm.lifetime.end.p0(i64 4, ptr nonnull %4) #16
  call void @llvm.lifetime.end.p0(i64 4, ptr nonnull %3) #16
  call void @llvm.lifetime.end.p0(i64 4, ptr nonnull %2) #16
  resume { ptr, i32 } %74
}